target datalayout = "e-m:e-p270:32:32-p271:32:32-p272:64:64-i64:64-i128:128-f80:128-n8:16:32:64-S128"
target triple = "x86_64-pc-linux-gnu"

; Function Attrs: inlinehint nounwind uwtable
define internal i32 @is_unicode_surrogate(i64 noundef %0) #4 {
  %2 = alloca i64, align 8
  store i64 %0, ptr %2, align 8, !tbaa !12
  %3 = load i64, ptr %2, align 8, !tbaa !12
  %4 = icmp uge i64 %3, 55296
  br i1 %4, label %5, label %8

5:                                                ; preds = %1
  %6 = load i64, ptr %2, align 8, !tbaa !12
  %7 = icmp ule i64 %6, 57343
  br label %8

8:                                                ; preds = %5, %1
  %9 = phi i1 [ false, %1 ], [ %7, %5 ]
  %10 = zext i1 %9 to i32
  ret i32 %10
}

; Function Attrs: inlinehint nounwind uwtable
define internal i32 @is_unicode_valid(i64 noundef %0) #4 {
  %2 = alloca i64, align 8
  store i64 %0, ptr %2, align 8, !tbaa !12
  %3 = load i64, ptr %2, align 8, !tbaa !12
  %4 = icmp ule i64 %3, 1114111
  br i1 %4, label %5, label %10

5:                                                ; preds = %1
  %6 = load i64, ptr %2, align 8, !tbaa !12
  %7 = call i32 @is_unicode_surrogate(i64 noundef %6)
  %8 = icmp ne i32 %7, 0
  %9 = xor i1 %8, true
  br label %10

10:                                               ; preds = %5, %1
  %11 = phi i1 [ false, %1 ], [ %9, %5 ]
  %12 = zext i1 %11 to i32
  ret i32 %12
}

; Function Attrs: nounwind uwtable
define internal i32 @type_str(i64 noundef %0, ptr noundef %1) #0 {
  %3 = alloca i32, align 4
  %4 = alloca i64, align 8
  %5 = alloca ptr, align 8
  %6 = alloca i64, align 8
  %7 = alloca i32, align 4
  %8 = alloca i32, align 4
  store i64 %0, ptr %4, align 8, !tbaa !12
  store ptr %1, ptr %5, align 8, !tbaa !14
  call void @llvm.lifetime.start.p0(i64 8, ptr %6) #5
  %9 = load ptr, ptr %5, align 8, !tbaa !14
  %10 = load i64, ptr %9, align 8, !tbaa !12
  store i64 %10, ptr %6, align 8, !tbaa !12
  call void @llvm.lifetime.start.p0(i64 4, ptr %7) #5
  %11 = load i64, ptr %4, align 8, !tbaa !12
  %12 = icmp ugt i64 %11, 2147483647
  br i1 %12, label %13, label %14

13:                                               ; preds = %2
  br label %16

14:                                               ; preds = %2
  %15 = load i64, ptr %4, align 8, !tbaa !12
  br label %16

16:                                               ; preds = %14, %13
  %17 = phi i64 [ 2147483647, %13 ], [ %15, %14 ]
  %18 = trunc i64 %17 to i32
  store i32 %18, ptr %7, align 4, !tbaa !10
  %19 = load i64, ptr %6, align 8, !tbaa !12
  %20 = and i64 %19, 1
  %21 = icmp ne i64 %20, 0
  br i1 %21, label %22, label %32

22:                                               ; preds = %16
  %23 = load i32, ptr %7, align 4, !tbaa !10
  %24 = call i32 @ossl_isdigit(i32 noundef %23)
  %25 = icmp ne i32 %24, 0
  br i1 %25, label %32, label %26

26:                                               ; preds = %22
  %27 = load i32, ptr %7, align 4, !tbaa !10
  %28 = icmp eq i32 %27, 32
  br i1 %28, label %32, label %29

29:                                               ; preds = %26
  %30 = load i64, ptr %6, align 8, !tbaa !12
  %31 = and i64 %30, -2
  store i64 %31, ptr %6, align 8, !tbaa !12
  br label %32

32:                                               ; preds = %29, %26, %22, %16
  %33 = load i64, ptr %6, align 8, !tbaa !12
  %34 = and i64 %33, 2
  %35 = icmp ne i64 %34, 0
  br i1 %35, label %36, label %43

36:                                               ; preds = %32
  %37 = load i32, ptr %7, align 4, !tbaa !10
  %38 = call i32 @ossl_ctype_check(i32 noundef %37, i32 noundef 2048)
  %39 = icmp ne i32 %38, 0
  br i1 %39, label %43, label %40

40:                                               ; preds = %36
  %41 = load i64, ptr %6, align 8, !tbaa !12
  %42 = and i64 %41, -3
  store i64 %42, ptr %6, align 8, !tbaa !12
  br label %43

43:                                               ; preds = %40, %36, %32
  %44 = load i64, ptr %6, align 8, !tbaa !12
  %45 = and i64 %44, 16
  %46 = icmp ne i64 %45, 0
  br i1 %46, label %47, label %54

47:                                               ; preds = %43
  %48 = load i32, ptr %7, align 4, !tbaa !10
  %49 = and i32 %48, -128
  %50 = icmp eq i32 %49, 0
  br i1 %50, label %54, label %51

51:                                               ; preds = %47
  %52 = load i64, ptr %6, align 8, !tbaa !12
  %53 = and i64 %52, -17
  store i64 %53, ptr %6, align 8, !tbaa !12
  br label %54

54:                                               ; preds = %51, %47, %43
  %55 = load i64, ptr %6, align 8, !tbaa !12
  %56 = and i64 %55, 4
  %57 = icmp ne i64 %56, 0
  br i1 %57, label %58, label %64

58:                                               ; preds = %54
  %59 = load i64, ptr %4, align 8, !tbaa !12
  %60 = icmp ugt i64 %59, 255
  br i1 %60, label %61, label %64

61:                                               ; preds = %58
  %62 = load i64, ptr %6, align 8, !tbaa !12
  %63 = and i64 %62, -5
  store i64 %63, ptr %6, align 8, !tbaa !12
  br label %64

64:                                               ; preds = %61, %58, %54
  %65 = load i64, ptr %6, align 8, !tbaa !12
  %66 = and i64 %65, 2048
  %67 = icmp ne i64 %66, 0
  br i1 %67, label %68, label %74

68:                                               ; preds = %64
  %69 = load i64, ptr %4, align 8, !tbaa !12
  %70 = icmp ugt i64 %69, 65535
  br i1 %70, label %71, label %74

71:                                               ; preds = %68
  %72 = load i64, ptr %6, align 8, !tbaa !12
  %73 = and i64 %72, -2049
  store i64 %73, ptr %6, align 8, !tbaa !12
  br label %74

74:                                               ; preds = %71, %68, %64
  %75 = load i64, ptr %6, align 8, !tbaa !12
  %76 = and i64 %75, 8192
  %77 = icmp ne i64 %76, 0
  br i1 %77, label %78, label %85

78:                                               ; preds = %74
  %79 = load i64, ptr %4, align 8, !tbaa !12
  %80 = call i32 @is_unicode_valid(i64 noundef %79)
  %81 = icmp ne i32 %80, 0
  br i1 %81, label %85, label %82

82:                                               ; preds = %78
  %83 = load i64, ptr %6, align 8, !tbaa !12
  %84 = and i64 %83, -8193
  store i64 %84, ptr %6, align 8, !tbaa !12
  br label %85

85:                                               ; preds = %82, %78, %74
  %86 = load i64, ptr %6, align 8, !tbaa !12
  %87 = icmp ne i64 %86, 0
  br i1 %87, label %89, label %88

88:                                               ; preds = %85
  store i32 -1, ptr %3, align 4
  store i32 1, ptr %8, align 4
  br label %92

89:                                               ; preds = %85
  %90 = load i64, ptr %6, align 8, !tbaa !12
  %91 = load ptr, ptr %5, align 8, !tbaa !14
  store i64 %90, ptr %91, align 8, !tbaa !12
  store i32 1, ptr %3, align 4
  store i32 1, ptr %8, align 4
  br label %92

92:                                               ; preds = %89, %88
  call void @llvm.lifetime.end.p0(i64 4, ptr %7) #5
  call void @llvm.lifetime.end.p0(i64 8, ptr %6) #5
  %93 = load i32, ptr %3, align 4
  ret i32 %93
}