; Function Attrs: nounwind uwtable
define internal range(i32 -1, 2) i32 @type_str(i64 noundef %0, ptr noundef captures(none) %1) #0 {
  %3 = load i64, ptr %1, align 8, !tbaa !3
  %4 = tail call i64 @llvm.umin.i64(i64 %0, i64 2147483647)
  %5 = trunc nuw nsw i64 %4 to i32
  %6 = and i64 %3, 1
  %.not = icmp eq i64 %6, 0
  br i1 %.not, label %12, label %7

7:                                                ; preds = %2
  %8 = tail call i32 @ossl_isdigit(i32 noundef %5) #6
  %9 = icmp ne i32 %8, 0
  %10 = icmp eq i64 %0, 32
  %or.cond = or i1 %10, %9
  %11 = and i64 %3, -2
  %spec.select = select i1 %or.cond, i64 %3, i64 %11
  br label %12

12:                                               ; preds = %7, %2
  %.030 = phi i64 [ %3, %2 ], [ %spec.select, %7 ]
  %13 = and i64 %.030, 2
  %.not31 = icmp eq i64 %13, 0
  br i1 %.not31, label %17, label %14

14:                                               ; preds = %12
  %15 = tail call i32 @ossl_ctype_check(i32 noundef %5, i32 noundef 2048) #6
  %.not32 = icmp eq i32 %15, 0
  %16 = and i64 %.030, -3
  %spec.select37 = select i1 %.not32, i64 %16, i64 %.030
  br label %17

17:                                               ; preds = %14, %12
  %.1 = phi i64 [ %.030, %12 ], [ %spec.select37, %14 ]
  %18 = icmp ult i64 %0, 128
  %19 = and i64 %.1, -17
  %.2 = select i1 %18, i64 %.1, i64 %19
  %20 = icmp ugt i64 %0, 255
  %21 = and i64 %.2, -5
  %.3 = select i1 %20, i64 %21, i64 %.2
  %22 = icmp ugt i64 %0, 65535
  %23 = and i64 %.3, -2049
  %.4 = select i1 %22, i64 %23, i64 %.3
  %24 = and i64 %.4, 8192
  %.not34 = icmp eq i64 %24, 0
  br i1 %.not34, label %select.unfold, label %25

25:                                               ; preds = %17
  %26 = icmp ugt i64 %0, 1114111
  %27 = and i64 %0, 2095104
  %28 = icmp eq i64 %27, 55296
  %narrow.i.not = or i1 %26, %28
  %29 = and i64 %.4, -8193
  br i1 %narrow.i.not, label %select.unfold, label %.thread

select.unfold:                                    ; preds = %25, %17
  %.5 = phi i64 [ %.4, %17 ], [ %29, %25 ]
  %.not36 = icmp eq i64 %.5, 0
  br i1 %.not36, label %30, label %.thread

.thread:                                          ; preds = %25, %select.unfold
  %.542 = phi i64 [ %.5, %select.unfold ], [ %.4, %25 ]
  store i64 %.542, ptr %1, align 8, !tbaa !3
  br label %30

30:                                               ; preds = %select.unfold, %.thread
  %.0 = phi i32 [ 1, %.thread ], [ -1, %select.unfold ]
  ret i32 %.0
}